target datalayout = "e-m:e-p270:32:32-p271:32:32-p272:64:64-i64:64-i128:128-f80:128-n8:16:32:64-S128"
target triple = "x86_64-pc-linux-gnu"

%"class.llvm::StringRef" = type { ptr, i64 }
%"struct.std::pair.77" = type { i64, i64 }
%struct.FilenameRange = type { i32, i32 }
%"struct.(anonymous namespace)::CovMapFuncRecordReader" = type { ptr }
%"class.llvm::DenseMap.388" = type <{ ptr, i32, i32, i32, [4 x i8] }>
%"struct.llvm::detail::DenseMapPair.394" = type { %"struct.std::pair.395" }
%"struct.std::pair.395" = type { i64, %struct.FilenameRange }
%"class.llvm::DenseMap.423" = type <{ ptr, i32, i32, i32, [4 x i8] }>
%"struct.llvm::detail::DenseMapPair.426" = type { %"struct.std::pair.77" }
%"class.(anonymous namespace)::VersionedCovMapFuncRecordReader.710" = type { %"struct.(anonymous namespace)::CovMapFuncRecordReader", %"class.llvm::DenseMap.423", ptr, %"class.llvm::StringRef", ptr, ptr, %"class.llvm::DenseMap.388" }

; Function Attrs: mustprogress nounwind uwtable
define linkonce_odr hidden noundef ptr @_ZNK4llvm8DenseMapImmNS_12DenseMapInfoImvEENS_6detail12DenseMapPairImmEEE10getBucketsEv(ptr noundef nonnull align 8 dereferenceable(20) %0) #1 comdat align 2 {
  %2 = alloca ptr, align 8
  store ptr %0, ptr %2, align 8
  %3 = load ptr, ptr %2, align 8
  %4 = getelementptr inbounds nuw %"class.llvm::DenseMap.423", ptr %3, i32 0, i32 0
  %5 = load ptr, ptr %4, align 8
  ret ptr %5
}

; Function Attrs: mustprogress nounwind uwtable
define linkonce_odr hidden noundef i32 @_ZNK4llvm8DenseMapImmNS_12DenseMapInfoImvEENS_6detail12DenseMapPairImmEEE13getNumBucketsEv(ptr noundef nonnull align 8 dereferenceable(20) %0) #1 comdat align 2 {
  %2 = alloca ptr, align 8
  store ptr %0, ptr %2, align 8
  %3 = load ptr, ptr %2, align 8
  %4 = getelementptr inbounds nuw %"class.llvm::DenseMap.423", ptr %3, i32 0, i32 3
  %5 = load i32, ptr %4, align 8
  ret i32 %5
}

; Function Attrs: mustprogress nounwind uwtable
define linkonce_odr hidden noundef ptr @_ZNK4llvm8DenseMapIm13FilenameRangeNS_12DenseMapInfoImvEENS_6detail12DenseMapPairImS1_EEE10getBucketsEv(ptr noundef nonnull align 8 dereferenceable(20) %0) #1 comdat align 2 {
  %2 = alloca ptr, align 8
  store ptr %0, ptr %2, align 8
  %3 = load ptr, ptr %2, align 8
  %4 = getelementptr inbounds nuw %"class.llvm::DenseMap.388", ptr %3, i32 0, i32 0
  %5 = load ptr, ptr %4, align 8
  ret ptr %5
}

; Function Attrs: mustprogress nounwind uwtable
define linkonce_odr hidden noundef i64 @_ZN4llvm12DenseMapInfoImvE15getTombstoneKeyEv() #1 comdat align 2 {
  ret i64 -2
}

; Function Attrs: mustprogress nounwind uwtable
define linkonce_odr hidden noundef i64 @_ZN4llvm12DenseMapInfoImvE11getEmptyKeyEv() #1 comdat align 2 {
  ret i64 -1
}

; Function Attrs: mustprogress nounwind uwtable
define linkonce_odr hidden noundef i32 @_ZNK4llvm8DenseMapIm13FilenameRangeNS_12DenseMapInfoImvEENS_6detail12DenseMapPairImS1_EEE13getNumBucketsEv(ptr noundef nonnull align 8 dereferenceable(20) %0) #1 comdat align 2 {
  %2 = alloca ptr, align 8
  store ptr %0, ptr %2, align 8
  %3 = load ptr, ptr %2, align 8
  %4 = getelementptr inbounds nuw %"class.llvm::DenseMap.388", ptr %3, i32 0, i32 3
  %5 = load i32, ptr %4, align 8
  ret i32 %5
}

; Function Attrs: mustprogress nounwind uwtable
define linkonce_odr hidden noundef nonnull align 8 dereferenceable(8) ptr @_ZN4llvm6detail12DenseMapPairImmE9getSecondEv(ptr noundef nonnull align 8 dereferenceable(16) %0) #1 comdat align 2 {
  %2 = alloca ptr, align 8
  store ptr %0, ptr %2, align 8
  %3 = load ptr, ptr %2, align 8
  %4 = getelementptr inbounds nuw %"struct.std::pair.77", ptr %3, i32 0, i32 1
  ret ptr %4
}

; Function Attrs: mustprogress nounwind uwtable
define linkonce_odr hidden noundef nonnull align 8 dereferenceable(8) ptr @_ZN4llvm6detail12DenseMapPairImmE8getFirstEv(ptr noundef nonnull align 8 dereferenceable(16) %0) #1 comdat align 2 {
  %2 = alloca ptr, align 8
  store ptr %0, ptr %2, align 8
  %3 = load ptr, ptr %2, align 8
  %4 = getelementptr inbounds nuw %"struct.std::pair.77", ptr %3, i32 0, i32 0
  ret ptr %4
}

; Function Attrs: mustprogress nounwind uwtable
define linkonce_odr hidden noundef ptr @_ZN4llvm12DenseMapBaseINS_8DenseMapImmNS_12DenseMapInfoImvEENS_6detail12DenseMapPairImmEEEEmmS3_S6_E13getBucketsEndEv(ptr noundef nonnull align 1 dereferenceable(1) %0) #1 comdat align 2 {
  %2 = alloca ptr, align 8
  store ptr %0, ptr %2, align 8
  %3 = load ptr, ptr %2, align 8
  %4 = call noundef ptr @_ZN4llvm12DenseMapBaseINS_8DenseMapImmNS_12DenseMapInfoImvEENS_6detail12DenseMapPairImmEEEEmmS3_S6_E10getBucketsEv(ptr noundef nonnull align 1 dereferenceable(1) %3)
  %5 = call noundef i32 @_ZNK4llvm12DenseMapBaseINS_8DenseMapImmNS_12DenseMapInfoImvEENS_6detail12DenseMapPairImmEEEEmmS3_S6_E13getNumBucketsEv(ptr noundef nonnull align 1 dereferenceable(1) %3)
  %6 = zext i32 %5 to i64
  %7 = getelementptr inbounds %"struct.llvm::detail::DenseMapPair.426", ptr %4, i64 %6
  ret ptr %7
}

; Function Attrs: mustprogress nounwind uwtable
define linkonce_odr hidden noundef ptr @_ZN4llvm12DenseMapBaseINS_8DenseMapImmNS_12DenseMapInfoImvEENS_6detail12DenseMapPairImmEEEEmmS3_S6_E10getBucketsEv(ptr noundef nonnull align 1 dereferenceable(1) %0) #1 comdat align 2 {
  %2 = alloca ptr, align 8
  store ptr %0, ptr %2, align 8
  %3 = load ptr, ptr %2, align 8
  %4 = call noundef ptr @_ZNK4llvm8DenseMapImmNS_12DenseMapInfoImvEENS_6detail12DenseMapPairImmEEE10getBucketsEv(ptr noundef nonnull align 8 dereferenceable(20) %3)
  ret ptr %4
}

; Function Attrs: mustprogress nounwind uwtable
define linkonce_odr hidden noundef i64 @_ZN4llvm12DenseMapBaseINS_8DenseMapImmNS_12DenseMapInfoImvEENS_6detail12DenseMapPairImmEEEEmmS3_S6_E15getTombstoneKeyEv() #1 comdat align 2 {
  %1 = call noundef i64 @_ZN4llvm12DenseMapInfoImvE15getTombstoneKeyEv()
  ret i64 %1
}

; Function Attrs: mustprogress nounwind uwtable
define linkonce_odr hidden noundef i64 @_ZN4llvm12DenseMapBaseINS_8DenseMapImmNS_12DenseMapInfoImvEENS_6detail12DenseMapPairImmEEEEmmS3_S6_E11getEmptyKeyEv() #1 comdat align 2 {
  %1 = call noundef i64 @_ZN4llvm12DenseMapInfoImvE11getEmptyKeyEv()
  ret i64 %1
}

; Function Attrs: mustprogress nounwind uwtable
define linkonce_odr hidden noundef i32 @_ZNK4llvm12DenseMapBaseINS_8DenseMapImmNS_12DenseMapInfoImvEENS_6detail12DenseMapPairImmEEEEmmS3_S6_E13getNumBucketsEv(ptr noundef nonnull align 1 dereferenceable(1) %0) #1 comdat align 2 {
  %2 = alloca ptr, align 8
  store ptr %0, ptr %2, align 8
  %3 = load ptr, ptr %2, align 8
  %4 = call noundef i32 @_ZNK4llvm8DenseMapImmNS_12DenseMapInfoImvEENS_6detail12DenseMapPairImmEEE13getNumBucketsEv(ptr noundef nonnull align 8 dereferenceable(20) %3)
  ret i32 %4
}

; Function Attrs: mustprogress nounwind uwtable
define linkonce_odr hidden noundef nonnull align 4 dereferenceable(8) ptr @_ZN4llvm6detail12DenseMapPairIm13FilenameRangeE9getSecondEv(ptr noundef nonnull align 8 dereferenceable(16) %0) #1 comdat align 2 {
  %2 = alloca ptr, align 8
  store ptr %0, ptr %2, align 8
  %3 = load ptr, ptr %2, align 8
  %4 = getelementptr inbounds nuw %"struct.std::pair.395", ptr %3, i32 0, i32 1
  ret ptr %4
}

; Function Attrs: mustprogress nounwind uwtable
define linkonce_odr hidden noundef zeroext i1 @_ZN4llvm12DenseMapInfoImvE7isEqualERKmS3_(ptr noundef nonnull align 8 dereferenceable(8) %0, ptr noundef nonnull align 8 dereferenceable(8) %1) #1 comdat align 2 {
  %3 = alloca ptr, align 8
  %4 = alloca ptr, align 8
  store ptr %0, ptr %3, align 8
  store ptr %1, ptr %4, align 8
  %5 = load ptr, ptr %3, align 8
  %6 = load i64, ptr %5, align 8
  %7 = load ptr, ptr %4, align 8
  %8 = load i64, ptr %7, align 8
  %9 = icmp eq i64 %6, %8
  ret i1 %9
}

; Function Attrs: mustprogress nounwind uwtable
define linkonce_odr hidden noundef nonnull align 8 dereferenceable(8) ptr @_ZN4llvm6detail12DenseMapPairIm13FilenameRangeE8getFirstEv(ptr noundef nonnull align 8 dereferenceable(16) %0) #1 comdat align 2 {
  %2 = alloca ptr, align 8
  store ptr %0, ptr %2, align 8
  %3 = load ptr, ptr %2, align 8
  %4 = getelementptr inbounds nuw %"struct.std::pair.395", ptr %3, i32 0, i32 0
  ret ptr %4
}

; Function Attrs: mustprogress nounwind uwtable
define linkonce_odr hidden noundef ptr @_ZN4llvm12DenseMapBaseINS_8DenseMapIm13FilenameRangeNS_12DenseMapInfoImvEENS_6detail12DenseMapPairImS2_EEEEmS2_S4_S7_E13getBucketsEndEv(ptr noundef nonnull align 1 dereferenceable(1) %0) #1 comdat align 2 {
  %2 = alloca ptr, align 8
  store ptr %0, ptr %2, align 8
  %3 = load ptr, ptr %2, align 8
  %4 = call noundef ptr @_ZN4llvm12DenseMapBaseINS_8DenseMapIm13FilenameRangeNS_12DenseMapInfoImvEENS_6detail12DenseMapPairImS2_EEEEmS2_S4_S7_E10getBucketsEv(ptr noundef nonnull align 1 dereferenceable(1) %3)
  %5 = call noundef i32 @_ZNK4llvm12DenseMapBaseINS_8DenseMapIm13FilenameRangeNS_12DenseMapInfoImvEENS_6detail12DenseMapPairImS2_EEEEmS2_S4_S7_E13getNumBucketsEv(ptr noundef nonnull align 1 dereferenceable(1) %3)
  %6 = zext i32 %5 to i64
  %7 = getelementptr inbounds %"struct.llvm::detail::DenseMapPair.394", ptr %4, i64 %6
  ret ptr %7
}

; Function Attrs: mustprogress nounwind uwtable
define linkonce_odr hidden noundef ptr @_ZN4llvm12DenseMapBaseINS_8DenseMapIm13FilenameRangeNS_12DenseMapInfoImvEENS_6detail12DenseMapPairImS2_EEEEmS2_S4_S7_E10getBucketsEv(ptr noundef nonnull align 1 dereferenceable(1) %0) #1 comdat align 2 {
  %2 = alloca ptr, align 8
  store ptr %0, ptr %2, align 8
  %3 = load ptr, ptr %2, align 8
  %4 = call noundef ptr @_ZNK4llvm8DenseMapIm13FilenameRangeNS_12DenseMapInfoImvEENS_6detail12DenseMapPairImS1_EEE10getBucketsEv(ptr noundef nonnull align 8 dereferenceable(20) %3)
  ret ptr %4
}

; Function Attrs: mustprogress nounwind uwtable
define linkonce_odr hidden noundef i64 @_ZN4llvm12DenseMapBaseINS_8DenseMapIm13FilenameRangeNS_12DenseMapInfoImvEENS_6detail12DenseMapPairImS2_EEEEmS2_S4_S7_E15getTombstoneKeyEv() #1 comdat align 2 {
  %1 = call noundef i64 @_ZN4llvm12DenseMapInfoImvE15getTombstoneKeyEv()
  ret i64 %1
}

; Function Attrs: mustprogress nounwind uwtable
define linkonce_odr hidden noundef i64 @_ZN4llvm12DenseMapBaseINS_8DenseMapIm13FilenameRangeNS_12DenseMapInfoImvEENS_6detail12DenseMapPairImS2_EEEEmS2_S4_S7_E11getEmptyKeyEv() #1 comdat align 2 {
  %1 = call noundef i64 @_ZN4llvm12DenseMapInfoImvE11getEmptyKeyEv()
  ret i64 %1
}

; Function Attrs: mustprogress nounwind uwtable
define linkonce_odr hidden noundef i32 @_ZNK4llvm12DenseMapBaseINS_8DenseMapIm13FilenameRangeNS_12DenseMapInfoImvEENS_6detail12DenseMapPairImS2_EEEEmS2_S4_S7_E13getNumBucketsEv(ptr noundef nonnull align 1 dereferenceable(1) %0) #1 comdat align 2 {
  %2 = alloca ptr, align 8
  store ptr %0, ptr %2, align 8
  %3 = load ptr, ptr %2, align 8
  %4 = call noundef i32 @_ZNK4llvm8DenseMapIm13FilenameRangeNS_12DenseMapInfoImvEENS_6detail12DenseMapPairImS1_EEE13getNumBucketsEv(ptr noundef nonnull align 8 dereferenceable(20) %3)
  ret i32 %4
}

; Function Attrs: mustprogress nounwind uwtable
define linkonce_odr hidden void @_ZN4llvm12DenseMapBaseINS_8DenseMapImmNS_12DenseMapInfoImvEENS_6detail12DenseMapPairImmEEEEmmS3_S6_E10destroyAllEv(ptr noundef nonnull align 1 dereferenceable(1) %0) #1 comdat align 2 {
  %2 = alloca ptr, align 8
  %3 = alloca i64, align 8
  %4 = alloca i64, align 8
  %5 = alloca ptr, align 8
  %6 = alloca ptr, align 8
  store ptr %0, ptr %2, align 8
  %7 = load ptr, ptr %2, align 8
  %8 = call noundef i32 @_ZNK4llvm12DenseMapBaseINS_8DenseMapImmNS_12DenseMapInfoImvEENS_6detail12DenseMapPairImmEEEEmmS3_S6_E13getNumBucketsEv(ptr noundef nonnull align 1 dereferenceable(1) %7)
  %9 = icmp eq i32 %8, 0
  br i1 %9, label %10, label %11

10:                                               ; preds = %1
  br label %37

11:                                               ; preds = %1
  %12 = call noundef i64 @_ZN4llvm12DenseMapBaseINS_8DenseMapImmNS_12DenseMapInfoImvEENS_6detail12DenseMapPairImmEEEEmmS3_S6_E11getEmptyKeyEv()
  store i64 %12, ptr %3, align 8
  %13 = call noundef i64 @_ZN4llvm12DenseMapBaseINS_8DenseMapImmNS_12DenseMapInfoImvEENS_6detail12DenseMapPairImmEEEEmmS3_S6_E15getTombstoneKeyEv()
  store i64 %13, ptr %4, align 8
  %14 = call noundef ptr @_ZN4llvm12DenseMapBaseINS_8DenseMapImmNS_12DenseMapInfoImvEENS_6detail12DenseMapPairImmEEEEmmS3_S6_E10getBucketsEv(ptr noundef nonnull align 1 dereferenceable(1) %7)
  store ptr %14, ptr %5, align 8
  %15 = call noundef ptr @_ZN4llvm12DenseMapBaseINS_8DenseMapImmNS_12DenseMapInfoImvEENS_6detail12DenseMapPairImmEEEEmmS3_S6_E13getBucketsEndEv(ptr noundef nonnull align 1 dereferenceable(1) %7)
  store ptr %15, ptr %6, align 8
  br label %16

16:                                               ; preds = %34, %11
  %17 = load ptr, ptr %5, align 8
  %18 = load ptr, ptr %6, align 8
  %19 = icmp ne ptr %17, %18
  br i1 %19, label %20, label %37

20:                                               ; preds = %16
  %21 = load ptr, ptr %5, align 8
  %22 = call noundef nonnull align 8 dereferenceable(8) ptr @_ZN4llvm6detail12DenseMapPairImmE8getFirstEv(ptr noundef nonnull align 8 dereferenceable(16) %21)
  %23 = call noundef zeroext i1 @_ZN4llvm12DenseMapInfoImvE7isEqualERKmS3_(ptr noundef nonnull align 8 dereferenceable(8) %22, ptr noundef nonnull align 8 dereferenceable(8) %3)
  br i1 %23, label %31, label %24

24:                                               ; preds = %20
  %25 = load ptr, ptr %5, align 8
  %26 = call noundef nonnull align 8 dereferenceable(8) ptr @_ZN4llvm6detail12DenseMapPairImmE8getFirstEv(ptr noundef nonnull align 8 dereferenceable(16) %25)
  %27 = call noundef zeroext i1 @_ZN4llvm12DenseMapInfoImvE7isEqualERKmS3_(ptr noundef nonnull align 8 dereferenceable(8) %26, ptr noundef nonnull align 8 dereferenceable(8) %4)
  br i1 %27, label %31, label %28

28:                                               ; preds = %24
  %29 = load ptr, ptr %5, align 8
  %30 = call noundef nonnull align 8 dereferenceable(8) ptr @_ZN4llvm6detail12DenseMapPairImmE9getSecondEv(ptr noundef nonnull align 8 dereferenceable(16) %29)
  br label %31

31:                                               ; preds = %28, %24, %20
  %32 = load ptr, ptr %5, align 8
  %33 = call noundef nonnull align 8 dereferenceable(8) ptr @_ZN4llvm6detail12DenseMapPairImmE8getFirstEv(ptr noundef nonnull align 8 dereferenceable(16) %32)
  br label %34

34:                                               ; preds = %31
  %35 = load ptr, ptr %5, align 8
  %36 = getelementptr inbounds %"struct.llvm::detail::DenseMapPair.426", ptr %35, i32 1
  store ptr %36, ptr %5, align 8
  br label %16, !llvm.loop !54

37:                                               ; preds = %16, %10
  ret void
}

; Function Attrs: mustprogress nounwind uwtable
define linkonce_odr hidden void @_ZN4llvm12DenseMapBaseINS_8DenseMapIm13FilenameRangeNS_12DenseMapInfoImvEENS_6detail12DenseMapPairImS2_EEEEmS2_S4_S7_E10destroyAllEv(ptr noundef nonnull align 1 dereferenceable(1) %0) #1 comdat align 2 {
  %2 = alloca ptr, align 8
  %3 = alloca i64, align 8
  %4 = alloca i64, align 8
  %5 = alloca ptr, align 8
  %6 = alloca ptr, align 8
  store ptr %0, ptr %2, align 8
  %7 = load ptr, ptr %2, align 8
  %8 = call noundef i32 @_ZNK4llvm12DenseMapBaseINS_8DenseMapIm13FilenameRangeNS_12DenseMapInfoImvEENS_6detail12DenseMapPairImS2_EEEEmS2_S4_S7_E13getNumBucketsEv(ptr noundef nonnull align 1 dereferenceable(1) %7)
  %9 = icmp eq i32 %8, 0
  br i1 %9, label %10, label %11

10:                                               ; preds = %1
  br label %37

11:                                               ; preds = %1
  %12 = call noundef i64 @_ZN4llvm12DenseMapBaseINS_8DenseMapIm13FilenameRangeNS_12DenseMapInfoImvEENS_6detail12DenseMapPairImS2_EEEEmS2_S4_S7_E11getEmptyKeyEv()
  store i64 %12, ptr %3, align 8
  %13 = call noundef i64 @_ZN4llvm12DenseMapBaseINS_8DenseMapIm13FilenameRangeNS_12DenseMapInfoImvEENS_6detail12DenseMapPairImS2_EEEEmS2_S4_S7_E15getTombstoneKeyEv()
  store i64 %13, ptr %4, align 8
  %14 = call noundef ptr @_ZN4llvm12DenseMapBaseINS_8DenseMapIm13FilenameRangeNS_12DenseMapInfoImvEENS_6detail12DenseMapPairImS2_EEEEmS2_S4_S7_E10getBucketsEv(ptr noundef nonnull align 1 dereferenceable(1) %7)
  store ptr %14, ptr %5, align 8
  %15 = call noundef ptr @_ZN4llvm12DenseMapBaseINS_8DenseMapIm13FilenameRangeNS_12DenseMapInfoImvEENS_6detail12DenseMapPairImS2_EEEEmS2_S4_S7_E13getBucketsEndEv(ptr noundef nonnull align 1 dereferenceable(1) %7)
  store ptr %15, ptr %6, align 8
  br label %16

16:                                               ; preds = %34, %11
  %17 = load ptr, ptr %5, align 8
  %18 = load ptr, ptr %6, align 8
  %19 = icmp ne ptr %17, %18
  br i1 %19, label %20, label %37

20:                                               ; preds = %16
  %21 = load ptr, ptr %5, align 8
  %22 = call noundef nonnull align 8 dereferenceable(8) ptr @_ZN4llvm6detail12DenseMapPairIm13FilenameRangeE8getFirstEv(ptr noundef nonnull align 8 dereferenceable(16) %21)
  %23 = call noundef zeroext i1 @_ZN4llvm12DenseMapInfoImvE7isEqualERKmS3_(ptr noundef nonnull align 8 dereferenceable(8) %22, ptr noundef nonnull align 8 dereferenceable(8) %3)
  br i1 %23, label %31, label %24

24:                                               ; preds = %20
  %25 = load ptr, ptr %5, align 8
  %26 = call noundef nonnull align 8 dereferenceable(8) ptr @_ZN4llvm6detail12DenseMapPairIm13FilenameRangeE8getFirstEv(ptr noundef nonnull align 8 dereferenceable(16) %25)
  %27 = call noundef zeroext i1 @_ZN4llvm12DenseMapInfoImvE7isEqualERKmS3_(ptr noundef nonnull align 8 dereferenceable(8) %26, ptr noundef nonnull align 8 dereferenceable(8) %4)
  br i1 %27, label %31, label %28

28:                                               ; preds = %24
  %29 = load ptr, ptr %5, align 8
  %30 = call noundef nonnull align 4 dereferenceable(8) ptr @_ZN4llvm6detail12DenseMapPairIm13FilenameRangeE9getSecondEv(ptr noundef nonnull align 8 dereferenceable(16) %29)
  br label %31

31:                                               ; preds = %28, %24, %20
  %32 = load ptr, ptr %5, align 8
  %33 = call noundef nonnull align 8 dereferenceable(8) ptr @_ZN4llvm6detail12DenseMapPairIm13FilenameRangeE8getFirstEv(ptr noundef nonnull align 8 dereferenceable(16) %32)
  br label %34

34:                                               ; preds = %31
  %35 = load ptr, ptr %5, align 8
  %36 = getelementptr inbounds %"struct.llvm::detail::DenseMapPair.394", ptr %35, i32 1
  store ptr %36, ptr %5, align 8
  br label %16, !llvm.loop !45

37:                                               ; preds = %16, %10
  ret void
}

; Function Attrs: mustprogress nounwind uwtable
define internal void @_ZN12_GLOBAL__N_122CovMapFuncRecordReaderD2Ev(ptr noundef nonnull align 8 dereferenceable(8) %0) unnamed_addr #1 align 2 {
  %2 = alloca ptr, align 8
  store ptr %0, ptr %2, align 8
  ret void
}

; Function Attrs: mustprogress nounwind uwtable
define linkonce_odr hidden void @_ZN4llvm8DenseMapImmNS_12DenseMapInfoImvEENS_6detail12DenseMapPairImmEEED2Ev(ptr noundef nonnull align 8 dereferenceable(20) %0) unnamed_addr #1 comdat align 2 {
  %2 = alloca ptr, align 8
  store ptr %0, ptr %2, align 8
  %3 = load ptr, ptr %2, align 8
  call void @_ZN4llvm12DenseMapBaseINS_8DenseMapImmNS_12DenseMapInfoImvEENS_6detail12DenseMapPairImmEEEEmmS3_S6_E10destroyAllEv(ptr noundef nonnull align 1 dereferenceable(1) %3)
  %4 = getelementptr inbounds nuw %"class.llvm::DenseMap.423", ptr %3, i32 0, i32 0
  %5 = load ptr, ptr %4, align 8
  %6 = getelementptr inbounds nuw %"class.llvm::DenseMap.423", ptr %3, i32 0, i32 3
  %7 = load i32, ptr %6, align 8
  %8 = zext i32 %7 to i64
  %9 = mul i64 16, %8
  call void @_ZN4llvm17deallocate_bufferEPvmm(ptr noundef %5, i64 noundef %9, i64 noundef 8)
  ret void
}

; Function Attrs: mustprogress nounwind uwtable
define linkonce_odr hidden void @_ZN4llvm8DenseMapIm13FilenameRangeNS_12DenseMapInfoImvEENS_6detail12DenseMapPairImS1_EEED2Ev(ptr noundef nonnull align 8 dereferenceable(20) %0) unnamed_addr #1 comdat align 2 {
  %2 = alloca ptr, align 8
  store ptr %0, ptr %2, align 8
  %3 = load ptr, ptr %2, align 8
  call void @_ZN4llvm12DenseMapBaseINS_8DenseMapIm13FilenameRangeNS_12DenseMapInfoImvEENS_6detail12DenseMapPairImS2_EEEEmS2_S4_S7_E10destroyAllEv(ptr noundef nonnull align 1 dereferenceable(1) %3)
  %4 = getelementptr inbounds nuw %"class.llvm::DenseMap.388", ptr %3, i32 0, i32 0
  %5 = load ptr, ptr %4, align 8
  %6 = getelementptr inbounds nuw %"class.llvm::DenseMap.388", ptr %3, i32 0, i32 3
  %7 = load i32, ptr %6, align 8
  %8 = zext i32 %7 to i64
  %9 = mul i64 16, %8
  call void @_ZN4llvm17deallocate_bufferEPvmm(ptr noundef %5, i64 noundef %9, i64 noundef 8)
  ret void
}

; Function Attrs: mustprogress nounwind uwtable
define internal void @_ZN12_GLOBAL__N_131VersionedCovMapFuncRecordReaderILN4llvm8coverage13CovMapVersionE4EmLNS1_10endiannessE0EED2Ev(ptr noundef nonnull align 8 dereferenceable(96) %0) unnamed_addr #1 align 2 {
  %2 = alloca ptr, align 8
  store ptr %0, ptr %2, align 8
  %3 = load ptr, ptr %2, align 8
  store ptr getelementptr inbounds inrange(-16, 32) ({ [6 x ptr] }, ptr @_ZTVN12_GLOBAL__N_131VersionedCovMapFuncRecordReaderILN4llvm8coverage13CovMapVersionE4EmLNS1_10endiannessE0EEE, i32 0, i32 0, i32 2), ptr %3, align 8
  %4 = getelementptr inbounds nuw %"class.(anonymous namespace)::VersionedCovMapFuncRecordReader.710", ptr %3, i32 0, i32 6
  call void @_ZN4llvm8DenseMapIm13FilenameRangeNS_12DenseMapInfoImvEENS_6detail12DenseMapPairImS1_EEED2Ev(ptr noundef nonnull align 8 dereferenceable(20) %4) #15
  %5 = getelementptr inbounds nuw %"class.(anonymous namespace)::VersionedCovMapFuncRecordReader.710", ptr %3, i32 0, i32 1
  call void @_ZN4llvm8DenseMapImmNS_12DenseMapInfoImvEENS_6detail12DenseMapPairImmEEED2Ev(ptr noundef nonnull align 8 dereferenceable(20) %5) #15
  call void @_ZN12_GLOBAL__N_122CovMapFuncRecordReaderD2Ev(ptr noundef nonnull align 8 dereferenceable(8) %3) #15
  ret void
}

; Function Attrs: mustprogress nounwind uwtable
define internal void @_ZN12_GLOBAL__N_131VersionedCovMapFuncRecordReaderILN4llvm8coverage13CovMapVersionE4EmLNS1_10endiannessE0EED0Ev(ptr noundef nonnull align 8 dereferenceable(96) %0) unnamed_addr #1 align 2 {
  %2 = alloca ptr, align 8
  store ptr %0, ptr %2, align 8
  %3 = load ptr, ptr %2, align 8
  call void @_ZN12_GLOBAL__N_131VersionedCovMapFuncRecordReaderILN4llvm8coverage13CovMapVersionE4EmLNS1_10endiannessE0EED2Ev(ptr noundef nonnull align 8 dereferenceable(96) %3) #15
  call void @_ZdlPvm(ptr noundef %3, i64 noundef 96) #17
  ret void
}